
Menu01.elf:     file format elf32-avr

Sections:
Idx Name          Size      VMA       LMA       File off  Algn
  0 .data         0000023c  00800100  00000582  00000616  2**0
                  CONTENTS, ALLOC, LOAD, DATA
  1 .text         00000582  00000000  00000000  00000094  2**1
                  CONTENTS, ALLOC, LOAD, READONLY, CODE
  2 .bss          00000029  0080033c  0080033c  00000852  2**0
                  ALLOC

Disassembly of section .text:

00000000 <__vectors>:
   0:	0c 94 34 00 	jmp	0x68	; 0x68 <__ctors_end>
   4:	0c 94 51 00 	jmp	0xa2	; 0xa2 <__bad_interrupt>
   8:	0c 94 51 00 	jmp	0xa2	; 0xa2 <__bad_interrupt>
   c:	0c 94 51 00 	jmp	0xa2	; 0xa2 <__bad_interrupt>
  10:	0c 94 51 00 	jmp	0xa2	; 0xa2 <__bad_interrupt>
  14:	0c 94 51 00 	jmp	0xa2	; 0xa2 <__bad_interrupt>
  18:	0c 94 51 00 	jmp	0xa2	; 0xa2 <__bad_interrupt>
  1c:	0c 94 51 00 	jmp	0xa2	; 0xa2 <__bad_interrupt>
  20:	0c 94 51 00 	jmp	0xa2	; 0xa2 <__bad_interrupt>
  24:	0c 94 51 00 	jmp	0xa2	; 0xa2 <__bad_interrupt>
  28:	0c 94 51 00 	jmp	0xa2	; 0xa2 <__bad_interrupt>
  2c:	0c 94 51 00 	jmp	0xa2	; 0xa2 <__bad_interrupt>
  30:	0c 94 51 00 	jmp	0xa2	; 0xa2 <__bad_interrupt>
  34:	0c 94 51 00 	jmp	0xa2	; 0xa2 <__bad_interrupt>
  38:	0c 94 51 00 	jmp	0xa2	; 0xa2 <__bad_interrupt>
  3c:	0c 94 51 00 	jmp	0xa2	; 0xa2 <__bad_interrupt>
  40:	0c 94 51 00 	jmp	0xa2	; 0xa2 <__bad_interrupt>
  44:	0c 94 51 00 	jmp	0xa2	; 0xa2 <__bad_interrupt>
  48:	0c 94 68 01 	jmp	0x2d0	; 0x2d0 <__vector_18>
  4c:	0c 94 51 00 	jmp	0xa2	; 0xa2 <__bad_interrupt>
  50:	0c 94 51 00 	jmp	0xa2	; 0xa2 <__bad_interrupt>
  54:	0c 94 51 00 	jmp	0xa2	; 0xa2 <__bad_interrupt>
  58:	0c 94 51 00 	jmp	0xa2	; 0xa2 <__bad_interrupt>
  5c:	0c 94 51 00 	jmp	0xa2	; 0xa2 <__bad_interrupt>
  60:	0c 94 51 00 	jmp	0xa2	; 0xa2 <__bad_interrupt>
  64:	0c 94 51 00 	jmp	0xa2	; 0xa2 <__bad_interrupt>

00000068 <__ctors_end>:
  68:	11 24       	eor	r1, r1
  6a:	1f be       	out	0x3f, r1	; 63
  6c:	cf ef       	ldi	r28, 0xFF	; 255
  6e:	d8 e0       	ldi	r29, 0x08	; 8
  70:	de bf       	out	0x3e, r29	; 62
  72:	cd bf       	out	0x3d, r28	; 61

00000074 <__do_copy_data>:
  74:	13 e0       	ldi	r17, 0x03	; 3
  76:	a0 e0       	ldi	r26, 0x00	; 0
  78:	b1 e0       	ldi	r27, 0x01	; 1
  7a:	e2 e8       	ldi	r30, 0x82	; 130
  7c:	f5 e0       	ldi	r31, 0x05	; 5
  7e:	02 c0       	rjmp	.+4      	; 0x84 <.do_copy_data_start>

00000080 <.do_copy_data_loop>:
  80:	05 90       	lpm	r0, Z+
  82:	0d 92       	st	X+, r0

00000084 <.do_copy_data_start>:
  84:	ac 33       	cpi	r26, 0x3C	; 60
  86:	b1 07       	cpc	r27, r17
  88:	d9 f7       	brne	.-10     	; 0x80 <.do_copy_data_loop>

0000008a <__do_clear_bss>:
  8a:	13 e0       	ldi	r17, 0x03	; 3
  8c:	ac e3       	ldi	r26, 0x3C	; 60
  8e:	b3 e0       	ldi	r27, 0x03	; 3
  90:	01 c0       	rjmp	.+2      	; 0x94 <.do_clear_bss_start>

00000092 <.do_clear_bss_loop>:
  92:	1d 92       	st	X+, r1

00000094 <.do_clear_bss_start>:
  94:	a5 36       	cpi	r26, 0x65	; 101
  96:	b1 07       	cpc	r27, r17
  98:	e1 f7       	brne	.-8      	; 0x92 <.do_clear_bss_loop>
  9a:	0e 94 37 01 	call	0x26e	; 0x26e <main>
  9e:	0c 94 bf 02 	jmp	0x57e	; 0x57e <_exit>

000000a2 <__bad_interrupt>:
  a2:	0c 94 00 00 	jmp	0	; 0x0 <__vectors>

000000a6 <lcd_write>:
  a6:	28 2f       	mov	r18, r24
  a8:	66 23       	and	r22, r22
  aa:	11 f0       	breq	.+4      	; 0xb0 <lcd_write+0xa>
  ac:	2c 9a       	sbi	0x05, 4	; 5
  ae:	01 c0       	rjmp	.+2      	; 0xb2 <lcd_write+0xc>
  b0:	2c 98       	cbi	0x05, 4	; 5
  b2:	2d 98       	cbi	0x05, 5	; 5
  b4:	84 b1       	in	r24, 0x04	; 4
  b6:	8f 60       	ori	r24, 0x0F	; 15
  b8:	84 b9       	out	0x04, r24	; 4
  ba:	95 b1       	in	r25, 0x05	; 5
  bc:	90 7f       	andi	r25, 0xF0	; 240
  be:	82 2f       	mov	r24, r18
  c0:	82 95       	swap	r24
  c2:	8f 70       	andi	r24, 0x0F	; 15
  c4:	89 2b       	or	r24, r25
  c6:	85 b9       	out	0x05, r24	; 5
  c8:	2e 9a       	sbi	0x05, 6	; 5
  ca:	00 c0       	rjmp	.+0      	; 0xcc <lcd_write+0x26>
  cc:	2e 98       	cbi	0x05, 6	; 5
  ce:	2f 70       	andi	r18, 0x0F	; 15
  d0:	29 2b       	or	r18, r25
  d2:	25 b9       	out	0x05, r18	; 5
  d4:	2e 9a       	sbi	0x05, 6	; 5
  d6:	00 c0       	rjmp	.+0      	; 0xd8 <lcd_write+0x32>
  d8:	2e 98       	cbi	0x05, 6	; 5
  da:	9f 60       	ori	r25, 0x0F	; 15
  dc:	95 b9       	out	0x05, r25	; 5
  de:	08 95       	ret

000000e0 <lcd_read>:
  e0:	88 23       	and	r24, r24
  e2:	11 f0       	breq	.+4      	; 0xe8 <lcd_read+0x8>
  e4:	2c 9a       	sbi	0x05, 4	; 5
  e6:	01 c0       	rjmp	.+2      	; 0xea <lcd_read+0xa>
  e8:	2c 98       	cbi	0x05, 4	; 5
  ea:	2d 9a       	sbi	0x05, 5	; 5
  ec:	84 b1       	in	r24, 0x04	; 4
  ee:	80 7f       	andi	r24, 0xF0	; 240
  f0:	84 b9       	out	0x04, r24	; 4
  f2:	2e 9a       	sbi	0x05, 6	; 5
  f4:	00 c0       	rjmp	.+0      	; 0xf6 <lcd_read+0x16>
  f6:	93 b1       	in	r25, 0x03	; 3
  f8:	2e 98       	cbi	0x05, 6	; 5
  fa:	00 c0       	rjmp	.+0      	; 0xfc <lcd_read+0x1c>
  fc:	2e 9a       	sbi	0x05, 6	; 5
  fe:	00 c0       	rjmp	.+0      	; 0x100 <lcd_read+0x20>
 100:	83 b1       	in	r24, 0x03	; 3
 102:	8f 70       	andi	r24, 0x0F	; 15
 104:	92 95       	swap	r25
 106:	90 7f       	andi	r25, 0xF0	; 240
 108:	2e 98       	cbi	0x05, 6	; 5
 10a:	89 2b       	or	r24, r25
 10c:	08 95       	ret

0000010e <lcd_waitbusy>:
 10e:	80 e0       	ldi	r24, 0x00	; 0
 110:	0e 94 70 00 	call	0xe0	; 0xe0 <lcd_read>
 114:	87 fd       	sbrc	r24, 7
 116:	fb cf       	rjmp	.-10     	; 0x10e <lcd_waitbusy>
 118:	00 c0       	rjmp	.+0      	; 0x11a <lcd_waitbusy+0xc>
 11a:	80 e0       	ldi	r24, 0x00	; 0
 11c:	0e 94 70 00 	call	0xe0	; 0xe0 <lcd_read>
 120:	08 95       	ret

00000122 <lcd_command>:
 122:	1f 93       	push	r17
 124:	18 2f       	mov	r17, r24
 126:	0e 94 87 00 	call	0x10e	; 0x10e <lcd_waitbusy>
 12a:	81 2f       	mov	r24, r17
 12c:	60 e0       	ldi	r22, 0x00	; 0
 12e:	0e 94 53 00 	call	0xa6	; 0xa6 <lcd_write>
 132:	1f 91       	pop	r17
 134:	08 95       	ret

00000136 <lcd_data>:
 136:	1f 93       	push	r17
 138:	18 2f       	mov	r17, r24
 13a:	0e 94 87 00 	call	0x10e	; 0x10e <lcd_waitbusy>
 13e:	81 2f       	mov	r24, r17
 140:	61 e0       	ldi	r22, 0x01	; 1
 142:	0e 94 53 00 	call	0xa6	; 0xa6 <lcd_write>
 146:	1f 91       	pop	r17
 148:	08 95       	ret

0000014a <lcd_gotoxy>:
 14a:	66 23       	and	r22, r22
 14c:	11 f4       	brne	.+4      	; 0x152 <lcd_gotoxy+0x8>
 14e:	80 58       	subi	r24, 0x80	; 128
 150:	09 c0       	rjmp	.+18     	; 0x164 <lcd_gotoxy+0x1a>
 152:	61 30       	cpi	r22, 0x01	; 1
 154:	11 f4       	brne	.+4      	; 0x15a <lcd_gotoxy+0x10>
 156:	80 54       	subi	r24, 0x40	; 64
 158:	05 c0       	rjmp	.+10     	; 0x164 <lcd_gotoxy+0x1a>
 15a:	62 30       	cpi	r22, 0x02	; 2
 15c:	11 f4       	brne	.+4      	; 0x162 <lcd_gotoxy+0x18>
 15e:	8c 56       	subi	r24, 0x6C	; 108
 160:	01 c0       	rjmp	.+2      	; 0x164 <lcd_gotoxy+0x1a>
 162:	8c 52       	subi	r24, 0x2C	; 44
 164:	0e 94 91 00 	call	0x122	; 0x122 <lcd_command>
 168:	08 95       	ret

0000016a <lcd_getxy>:
 16a:	0e 94 87 00 	call	0x10e	; 0x10e <lcd_waitbusy>
 16e:	90 e0       	ldi	r25, 0x00	; 0
 170:	08 95       	ret

00000172 <lcd_clrscr>:
 172:	81 e0       	ldi	r24, 0x01	; 1
 174:	0e 94 91 00 	call	0x122	; 0x122 <lcd_command>
 178:	08 95       	ret

0000017a <lcd_home>:
 17a:	82 e0       	ldi	r24, 0x02	; 2
 17c:	0e 94 91 00 	call	0x122	; 0x122 <lcd_command>
 180:	08 95       	ret

00000182 <lcd_putc>:
 182:	1f 93       	push	r17
 184:	18 2f       	mov	r17, r24
 186:	0e 94 87 00 	call	0x10e	; 0x10e <lcd_waitbusy>
 18a:	98 2f       	mov	r25, r24
 18c:	1a 30       	cpi	r17, 0x0A	; 10
 18e:	99 f4       	brne	.+38     	; 0x1b6 <lcd_putc+0x34>
 190:	84 31       	cpi	r24, 0x14	; 20
 192:	10 f4       	brcc	.+4      	; 0x198 <lcd_putc+0x16>
 194:	80 e4       	ldi	r24, 0x40	; 64
 196:	0b c0       	rjmp	.+22     	; 0x1ae <lcd_putc+0x2c>
 198:	80 54       	subi	r24, 0x40	; 64
 19a:	84 31       	cpi	r24, 0x14	; 20
 19c:	10 f4       	brcc	.+4      	; 0x1a2 <lcd_putc+0x20>
 19e:	84 e1       	ldi	r24, 0x14	; 20
 1a0:	06 c0       	rjmp	.+12     	; 0x1ae <lcd_putc+0x2c>
 1a2:	94 51       	subi	r25, 0x14	; 20
 1a4:	9c 32       	cpi	r25, 0x2C	; 44
 1a6:	10 f0       	brcs	.+4      	; 0x1ac <lcd_putc+0x2a>
 1a8:	80 e0       	ldi	r24, 0x00	; 0
 1aa:	01 c0       	rjmp	.+2      	; 0x1ae <lcd_putc+0x2c>
 1ac:	84 e5       	ldi	r24, 0x54	; 84
 1ae:	80 58       	subi	r24, 0x80	; 128
 1b0:	0e 94 91 00 	call	0x122	; 0x122 <lcd_command>
 1b4:	04 c0       	rjmp	.+8      	; 0x1be <lcd_putc+0x3c>
 1b6:	81 2f       	mov	r24, r17
 1b8:	61 e0       	ldi	r22, 0x01	; 1
 1ba:	0e 94 53 00 	call	0xa6	; 0xa6 <lcd_write>
 1be:	1f 91       	pop	r17
 1c0:	08 95       	ret

000001c2 <lcd_puts>:
 1c2:	cf 93       	push	r28
 1c4:	df 93       	push	r29
 1c6:	ec 01       	movw	r28, r24
 1c8:	02 c0       	rjmp	.+4      	; 0x1ce <lcd_puts+0xc>
 1ca:	0e 94 c1 00 	call	0x182	; 0x182 <lcd_putc>
 1ce:	89 91       	ld	r24, Y+
 1d0:	88 23       	and	r24, r24
 1d2:	d9 f7       	brne	.-10     	; 0x1ca <lcd_puts+0x8>
 1d4:	df 91       	pop	r29
 1d6:	cf 91       	pop	r28
 1d8:	08 95       	ret

000001da <lcd_puts_p>:
 1da:	cf 93       	push	r28
 1dc:	df 93       	push	r29
 1de:	ec 01       	movw	r28, r24
 1e0:	02 c0       	rjmp	.+4      	; 0x1e6 <lcd_puts_p+0xc>
 1e2:	0e 94 c1 00 	call	0x182	; 0x182 <lcd_putc>
 1e6:	fe 01       	movw	r30, r28
 1e8:	21 96       	adiw	r28, 0x01	; 1
 1ea:	84 91       	lpm	r24, Z+
 1ec:	88 23       	and	r24, r24
 1ee:	c9 f7       	brne	.-14     	; 0x1e2 <lcd_puts_p+0x8>
 1f0:	df 91       	pop	r29
 1f2:	cf 91       	pop	r28
 1f4:	08 95       	ret

000001f6 <lcd_init>:
 1f6:	1f 93       	push	r17
 1f8:	18 2f       	mov	r17, r24
 1fa:	84 b1       	in	r24, 0x04	; 4
 1fc:	8f 67       	ori	r24, 0x7F	; 127
 1fe:	84 b9       	out	0x04, r24	; 4
 200:	80 ea       	ldi	r24, 0xA0	; 160
 202:	9f e0       	ldi	r25, 0x0F	; 15
 204:	01 97       	sbiw	r24, 0x01	; 1
 206:	f1 f7       	brne	.-4      	; 0x204 <lcd_init+0xe>
 208:	29 9a       	sbi	0x05, 1	; 5
 20a:	28 9a       	sbi	0x05, 0	; 5
 20c:	2e 9a       	sbi	0x05, 6	; 5
 20e:	00 c0       	rjmp	.+0      	; 0x210 <lcd_init+0x1a>
 210:	2e 98       	cbi	0x05, 6	; 5
 212:	80 ee       	ldi	r24, 0xE0	; 224
 214:	94 e0       	ldi	r25, 0x04	; 4
 216:	01 97       	sbiw	r24, 0x01	; 1
 218:	f1 f7       	brne	.-4      	; 0x216 <lcd_init+0x20>
 21a:	2e 9a       	sbi	0x05, 6	; 5
 21c:	00 c0       	rjmp	.+0      	; 0x21e <lcd_init+0x28>
 21e:	2e 98       	cbi	0x05, 6	; 5
 220:	80 e1       	ldi	r24, 0x10	; 16
 222:	90 e0       	ldi	r25, 0x00	; 0
 224:	fc 01       	movw	r30, r24
 226:	31 97       	sbiw	r30, 0x01	; 1
 228:	f1 f7       	brne	.-4      	; 0x226 <lcd_init+0x30>
 22a:	2e 9a       	sbi	0x05, 6	; 5
 22c:	00 c0       	rjmp	.+0      	; 0x22e <lcd_init+0x38>
 22e:	2e 98       	cbi	0x05, 6	; 5
 230:	fc 01       	movw	r30, r24
 232:	31 97       	sbiw	r30, 0x01	; 1
 234:	f1 f7       	brne	.-4      	; 0x232 <lcd_init+0x3c>
 236:	28 98       	cbi	0x05, 0	; 5
 238:	2e 9a       	sbi	0x05, 6	; 5
 23a:	00 c0       	rjmp	.+0      	; 0x23c <lcd_init+0x46>
 23c:	2e 98       	cbi	0x05, 6	; 5
 23e:	01 97       	sbiw	r24, 0x01	; 1
 240:	f1 f7       	brne	.-4      	; 0x23e <lcd_init+0x48>
 242:	88 e2       	ldi	r24, 0x28	; 40
 244:	0e 94 91 00 	call	0x122	; 0x122 <lcd_command>
 248:	88 e0       	ldi	r24, 0x08	; 8
 24a:	0e 94 91 00 	call	0x122	; 0x122 <lcd_command>
 24e:	0e 94 b9 00 	call	0x172	; 0x172 <lcd_clrscr>
 252:	86 e0       	ldi	r24, 0x06	; 6
 254:	0e 94 91 00 	call	0x122	; 0x122 <lcd_command>
 258:	81 2f       	mov	r24, r17
 25a:	0e 94 91 00 	call	0x122	; 0x122 <lcd_command>
 25e:	1f 91       	pop	r17
 260:	08 95       	ret

00000262 <adjust_value>:
 262:	28 ea       	ldi	r18, 0xA8	; 168
 264:	31 e6       	ldi	r19, 0x61	; 97
 266:	c9 01       	movw	r24, r18
 268:	01 97       	sbiw	r24, 0x01	; 1
 26a:	f1 f7       	brne	.-4      	; 0x268 <adjust_value+0x6>
 26c:	fc cf       	rjmp	.-8      	; 0x266 <adjust_value+0x4>

0000026e <main>:
 26e:	86 e3       	ldi	r24, 0x36	; 54
 270:	93 e0       	ldi	r25, 0x03	; 3
 272:	6b e9       	ldi	r22, 0x9B	; 155
 274:	72 e0       	ldi	r23, 0x02	; 2
 276:	0e 94 10 02 	call	0x420	; 0x420 <menu_enter>
 27a:	ff cf       	rjmp	.-2      	; 0x27a <main+0xc>

0000027c <my_select>:
 27c:	0f 93       	push	r16
 27e:	1f 93       	push	r17
 280:	8b 01       	movw	r16, r22
 282:	0e 94 b9 00 	call	0x172	; 0x172 <lcd_clrscr>
 286:	80 e0       	ldi	r24, 0x00	; 0
 288:	91 e0       	ldi	r25, 0x01	; 1
 28a:	0e 94 e1 00 	call	0x1c2	; 0x1c2 <lcd_puts>
 28e:	c8 01       	movw	r24, r16
 290:	0e 94 e1 00 	call	0x1c2	; 0x1c2 <lcd_puts>
 294:	8c e4       	ldi	r24, 0x4C	; 76
 296:	9d e1       	ldi	r25, 0x1D	; 29
 298:	29 e1       	ldi	r18, 0x19	; 25
 29a:	30 e0       	ldi	r19, 0x00	; 0
 29c:	f9 01       	movw	r30, r18
 29e:	31 97       	sbiw	r30, 0x01	; 1
 2a0:	f1 f7       	brne	.-4      	; 0x29e <my_select+0x22>
 2a2:	01 97       	sbiw	r24, 0x01	; 1
 2a4:	d9 f7       	brne	.-10     	; 0x29c <my_select+0x20>
 2a6:	1f 91       	pop	r17
 2a8:	0f 91       	pop	r16
 2aa:	08 95       	ret

000002ac <serialInit>:
 2ac:	10 92 c0 00 	sts	0x00C0, r1
 2b0:	88 e1       	ldi	r24, 0x18	; 24
 2b2:	80 93 c1 00 	sts	0x00C1, r24
 2b6:	86 e0       	ldi	r24, 0x06	; 6
 2b8:	80 93 c2 00 	sts	0x00C2, r24
 2bc:	10 92 c5 00 	sts	0x00C5, r1
 2c0:	85 e0       	ldi	r24, 0x05	; 5
 2c2:	80 93 c4 00 	sts	0x00C4, r24
 2c6:	78 94       	sei
 2c8:	08 95       	ret

000002ca <serialGetCmd>:
 2ca:	80 e0       	ldi	r24, 0x00	; 0
 2cc:	90 e0       	ldi	r25, 0x00	; 0
 2ce:	08 95       	ret

000002d0 <__vector_18>:
 2d0:	1f 92       	push	r1
 2d2:	0f 92       	push	r0
 2d4:	0f b6       	in	r0, 0x3f	; 63
 2d6:	0f 92       	push	r0
 2d8:	11 24       	eor	r1, r1
 2da:	8f 93       	push	r24
 2dc:	80 91 c6 00 	lds	r24, 0x00C6
 2e0:	80 93 3c 03 	sts	0x033C, r24
 2e4:	8f 91       	pop	r24
 2e6:	0f 90       	pop	r0
 2e8:	0f be       	out	0x3f, r0	; 63
 2ea:	0f 90       	pop	r0
 2ec:	1f 90       	pop	r1
 2ee:	18 95       	reti

000002f0 <writeSerial>:
 2f0:	fc 01       	movw	r30, r24
 2f2:	81 91       	ld	r24, Z+
 2f4:	88 23       	and	r24, r24
 2f6:	e9 f7       	brne	.-6      	; 0x2f2 <writeSerial+0x2>
 2f8:	08 95       	ret

000002fa <menu_display>:
 2fa:	6f 92       	push	r6
 2fc:	7f 92       	push	r7
 2fe:	8f 92       	push	r8
 300:	9f 92       	push	r9
 302:	af 92       	push	r10
 304:	bf 92       	push	r11
 306:	cf 92       	push	r12
 308:	df 92       	push	r13
 30a:	ef 92       	push	r14
 30c:	ff 92       	push	r15
 30e:	0f 93       	push	r16
 310:	1f 93       	push	r17
 312:	cf 93       	push	r28
 314:	df 93       	push	r29
 316:	7c 01       	movw	r14, r24
 318:	fc 01       	movw	r30, r24
 31a:	c0 80       	ld	r12, Z
 31c:	d1 80       	ldd	r13, Z+1	; 0x01
 31e:	00 e0       	ldi	r16, 0x00	; 0
 320:	aa 24       	eor	r10, r10
 322:	89 e1       	ldi	r24, 0x19	; 25
 324:	68 2e       	mov	r6, r24
 326:	71 2c       	mov	r7, r1
 328:	49 c0       	rjmp	.+146    	; 0x3bc <menu_display+0xc2>
 32a:	ea 2d       	mov	r30, r10
 32c:	f0 e0       	ldi	r31, 0x00	; 0
 32e:	e2 17       	cp	r30, r18
 330:	f3 07       	cpc	r31, r19
 332:	0c f0       	brlt	.+2      	; 0x336 <menu_display+0x3c>
 334:	62 c0       	rjmp	.+196    	; 0x3fa <menu_display+0x100>
 336:	4f 01       	movw	r8, r30
 338:	84 0e       	add	r8, r20
 33a:	95 1e       	adc	r9, r21
 33c:	a3 94       	inc	r10
 33e:	86 9c       	mul	r8, r6
 340:	f0 01       	movw	r30, r0
 342:	87 9c       	mul	r8, r7
 344:	f0 0d       	add	r31, r0
 346:	96 9c       	mul	r9, r6
 348:	f0 0d       	add	r31, r0
 34a:	11 24       	eor	r1, r1
 34c:	ec 0d       	add	r30, r12
 34e:	fd 1d       	adc	r31, r13
 350:	85 81       	ldd	r24, Z+5	; 0x05
 352:	81 fd       	sbrc	r24, 1
 354:	ea cf       	rjmp	.-44     	; 0x32a <menu_display+0x30>
 356:	f7 01       	movw	r30, r14
 358:	63 81       	ldd	r22, Z+3	; 0x03
 35a:	60 0f       	add	r22, r16
 35c:	82 81       	ldd	r24, Z+2	; 0x02
 35e:	0e 94 a5 00 	call	0x14a	; 0x14a <lcd_gotoxy>
 362:	f7 01       	movw	r30, r14
 364:	b5 80       	ldd	r11, Z+5	; 0x05
 366:	ba 94       	dec	r11
 368:	f6 01       	movw	r30, r12
 36a:	21 81       	ldd	r18, Z+1	; 0x01
 36c:	30 e0       	ldi	r19, 0x00	; 0
 36e:	8a 2d       	mov	r24, r10
 370:	90 e0       	ldi	r25, 0x00	; 0
 372:	01 97       	sbiw	r24, 0x01	; 1
 374:	28 17       	cp	r18, r24
 376:	39 07       	cpc	r19, r25
 378:	11 f4       	brne	.+4      	; 0x37e <menu_display+0x84>
 37a:	8a e2       	ldi	r24, 0x2A	; 42
 37c:	01 c0       	rjmp	.+2      	; 0x380 <menu_display+0x86>
 37e:	80 e2       	ldi	r24, 0x20	; 32
 380:	0e 94 c1 00 	call	0x182	; 0x182 <lcd_putc>
 384:	86 9c       	mul	r8, r6
 386:	e0 01       	movw	r28, r0
 388:	87 9c       	mul	r8, r7
 38a:	d0 0d       	add	r29, r0
 38c:	96 9c       	mul	r9, r6
 38e:	d0 0d       	add	r29, r0
 390:	11 24       	eor	r1, r1
 392:	28 96       	adiw	r28, 0x08	; 8
 394:	cc 0d       	add	r28, r12
 396:	dd 1d       	adc	r29, r13
 398:	10 e0       	ldi	r17, 0x00	; 0
 39a:	06 c0       	rjmp	.+12     	; 0x3a8 <menu_display+0xae>
 39c:	89 91       	ld	r24, Y+
 39e:	88 23       	and	r24, r24
 3a0:	31 f0       	breq	.+12     	; 0x3ae <menu_display+0xb4>
 3a2:	0e 94 c1 00 	call	0x182	; 0x182 <lcd_putc>
 3a6:	1f 5f       	subi	r17, 0xFF	; 255
 3a8:	1b 15       	cp	r17, r11
 3aa:	c0 f3       	brcs	.-16     	; 0x39c <menu_display+0xa2>
 3ac:	06 c0       	rjmp	.+12     	; 0x3ba <menu_display+0xc0>
 3ae:	80 e2       	ldi	r24, 0x20	; 32
 3b0:	0e 94 c1 00 	call	0x182	; 0x182 <lcd_putc>
 3b4:	1f 5f       	subi	r17, 0xFF	; 255
 3b6:	1b 15       	cp	r17, r11
 3b8:	d0 f3       	brcs	.-12     	; 0x3ae <menu_display+0xb4>
 3ba:	0f 5f       	subi	r16, 0xFF	; 255
 3bc:	f7 01       	movw	r30, r14
 3be:	84 81       	ldd	r24, Z+4	; 0x04
 3c0:	08 17       	cp	r16, r24
 3c2:	d8 f4       	brcc	.+54     	; 0x3fa <menu_display+0x100>
 3c4:	f6 01       	movw	r30, r12
 3c6:	80 81       	ld	r24, Z
 3c8:	48 2f       	mov	r20, r24
 3ca:	50 e0       	ldi	r21, 0x00	; 0
 3cc:	82 81       	ldd	r24, Z+2	; 0x02
 3ce:	28 2f       	mov	r18, r24
 3d0:	30 e0       	ldi	r19, 0x00	; 0
 3d2:	24 1b       	sub	r18, r20
 3d4:	35 0b       	sbc	r19, r21
 3d6:	a9 cf       	rjmp	.-174    	; 0x32a <menu_display+0x30>
 3d8:	f7 01       	movw	r30, r14
 3da:	63 81       	ldd	r22, Z+3	; 0x03
 3dc:	60 0f       	add	r22, r16
 3de:	82 81       	ldd	r24, Z+2	; 0x02
 3e0:	0e 94 a5 00 	call	0x14a	; 0x14a <lcd_gotoxy>
 3e4:	10 e0       	ldi	r17, 0x00	; 0
 3e6:	04 c0       	rjmp	.+8      	; 0x3f0 <menu_display+0xf6>
 3e8:	80 e2       	ldi	r24, 0x20	; 32
 3ea:	0e 94 c1 00 	call	0x182	; 0x182 <lcd_putc>
 3ee:	1f 5f       	subi	r17, 0xFF	; 255
 3f0:	f7 01       	movw	r30, r14
 3f2:	85 81       	ldd	r24, Z+5	; 0x05
 3f4:	18 17       	cp	r17, r24
 3f6:	c0 f3       	brcs	.-16     	; 0x3e8 <menu_display+0xee>
 3f8:	0f 5f       	subi	r16, 0xFF	; 255
 3fa:	f7 01       	movw	r30, r14
 3fc:	84 81       	ldd	r24, Z+4	; 0x04
 3fe:	08 17       	cp	r16, r24
 400:	58 f3       	brcs	.-42     	; 0x3d8 <menu_display+0xde>
 402:	df 91       	pop	r29
 404:	cf 91       	pop	r28
 406:	1f 91       	pop	r17
 408:	0f 91       	pop	r16
 40a:	ff 90       	pop	r15
 40c:	ef 90       	pop	r14
 40e:	df 90       	pop	r13
 410:	cf 90       	pop	r12
 412:	bf 90       	pop	r11
 414:	af 90       	pop	r10
 416:	9f 90       	pop	r9
 418:	8f 90       	pop	r8
 41a:	7f 90       	pop	r7
 41c:	6f 90       	pop	r6
 41e:	08 95       	ret

00000420 <menu_enter>:
 420:	fc 01       	movw	r30, r24
 422:	db 01       	movw	r26, r22
 424:	80 81       	ld	r24, Z
 426:	91 81       	ldd	r25, Z+1	; 0x01
 428:	14 96       	adiw	r26, 0x04	; 4
 42a:	9c 93       	st	X, r25
 42c:	8e 93       	st	-X, r24
 42e:	13 97       	sbiw	r26, 0x03	; 3
 430:	71 83       	std	Z+1, r23	; 0x01
 432:	60 83       	st	Z, r22
 434:	cf 01       	movw	r24, r30
 436:	0e 94 7d 01 	call	0x2fa	; 0x2fa <menu_display>
 43a:	08 95       	ret

0000043c <menu_exit>:
 43c:	dc 01       	movw	r26, r24
 43e:	ed 91       	ld	r30, X+
 440:	fc 91       	ld	r31, X
 442:	11 97       	sbiw	r26, 0x01	; 1
 444:	83 81       	ldd	r24, Z+3	; 0x03
 446:	94 81       	ldd	r25, Z+4	; 0x04
 448:	00 97       	sbiw	r24, 0x00	; 0
 44a:	31 f0       	breq	.+12     	; 0x458 <menu_exit+0x1c>
 44c:	11 96       	adiw	r26, 0x01	; 1
 44e:	9c 93       	st	X, r25
 450:	8e 93       	st	-X, r24
 452:	cd 01       	movw	r24, r26
 454:	0e 94 7d 01 	call	0x2fa	; 0x2fa <menu_display>
 458:	08 95       	ret

0000045a <menu_prev_entry>:
 45a:	cf 93       	push	r28
 45c:	df 93       	push	r29
 45e:	ec 01       	movw	r28, r24
 460:	a8 81       	ld	r26, Y
 462:	b9 81       	ldd	r27, Y+1	; 0x01
 464:	11 96       	adiw	r26, 0x01	; 1
 466:	2c 91       	ld	r18, X
 468:	11 97       	sbiw	r26, 0x01	; 1
 46a:	49 e1       	ldi	r20, 0x19	; 25
 46c:	50 e0       	ldi	r21, 0x00	; 0
 46e:	22 23       	and	r18, r18
 470:	c9 f0       	breq	.+50     	; 0x4a4 <menu_prev_entry+0x4a>
 472:	21 50       	subi	r18, 0x01	; 1
 474:	82 2f       	mov	r24, r18
 476:	90 e0       	ldi	r25, 0x00	; 0
 478:	84 9f       	mul	r24, r20
 47a:	f0 01       	movw	r30, r0
 47c:	85 9f       	mul	r24, r21
 47e:	f0 0d       	add	r31, r0
 480:	94 9f       	mul	r25, r20
 482:	f0 0d       	add	r31, r0
 484:	11 24       	eor	r1, r1
 486:	ea 0f       	add	r30, r26
 488:	fb 1f       	adc	r31, r27
 48a:	85 81       	ldd	r24, Z+5	; 0x05
 48c:	81 fd       	sbrc	r24, 1
 48e:	ef cf       	rjmp	.-34     	; 0x46e <menu_prev_entry+0x14>
 490:	11 96       	adiw	r26, 0x01	; 1
 492:	2c 93       	st	X, r18
 494:	11 97       	sbiw	r26, 0x01	; 1
 496:	8c 91       	ld	r24, X
 498:	28 17       	cp	r18, r24
 49a:	08 f4       	brcc	.+2      	; 0x49e <menu_prev_entry+0x44>
 49c:	2c 93       	st	X, r18
 49e:	ce 01       	movw	r24, r28
 4a0:	0e 94 7d 01 	call	0x2fa	; 0x2fa <menu_display>
 4a4:	df 91       	pop	r29
 4a6:	cf 91       	pop	r28
 4a8:	08 95       	ret

000004aa <menu_next_entry>:
 4aa:	cf 93       	push	r28
 4ac:	df 93       	push	r29
 4ae:	ec 01       	movw	r28, r24
 4b0:	a8 81       	ld	r26, Y
 4b2:	b9 81       	ldd	r27, Y+1	; 0x01
 4b4:	11 96       	adiw	r26, 0x01	; 1
 4b6:	2c 91       	ld	r18, X
 4b8:	11 97       	sbiw	r26, 0x01	; 1
 4ba:	12 96       	adiw	r26, 0x02	; 2
 4bc:	9c 91       	ld	r25, X
 4be:	12 97       	sbiw	r26, 0x02	; 2
 4c0:	69 e1       	ldi	r22, 0x19	; 25
 4c2:	70 e0       	ldi	r23, 0x00	; 0
 4c4:	2f 5f       	subi	r18, 0xFF	; 255
 4c6:	29 17       	cp	r18, r25
 4c8:	f0 f4       	brcc	.+60     	; 0x506 <menu_next_entry+0x5c>
 4ca:	42 2f       	mov	r20, r18
 4cc:	50 e0       	ldi	r21, 0x00	; 0
 4ce:	46 9f       	mul	r20, r22
 4d0:	f0 01       	movw	r30, r0
 4d2:	47 9f       	mul	r20, r23
 4d4:	f0 0d       	add	r31, r0
 4d6:	56 9f       	mul	r21, r22
 4d8:	f0 0d       	add	r31, r0
 4da:	11 24       	eor	r1, r1
 4dc:	ea 0f       	add	r30, r26
 4de:	fb 1f       	adc	r31, r27
 4e0:	85 81       	ldd	r24, Z+5	; 0x05
 4e2:	81 fd       	sbrc	r24, 1
 4e4:	ef cf       	rjmp	.-34     	; 0x4c4 <menu_next_entry+0x1a>
 4e6:	11 96       	adiw	r26, 0x01	; 1
 4e8:	2c 93       	st	X, r18
 4ea:	11 97       	sbiw	r26, 0x01	; 1
 4ec:	3c 81       	ldd	r19, Y+4	; 0x04
 4ee:	8c 91       	ld	r24, X
 4f0:	90 e0       	ldi	r25, 0x00	; 0
 4f2:	83 0f       	add	r24, r19
 4f4:	91 1d       	adc	r25, r1
 4f6:	48 17       	cp	r20, r24
 4f8:	59 07       	cpc	r21, r25
 4fa:	14 f0       	brlt	.+4      	; 0x500 <menu_next_entry+0x56>
 4fc:	23 1b       	sub	r18, r19
 4fe:	2c 93       	st	X, r18
 500:	ce 01       	movw	r24, r28
 502:	0e 94 7d 01 	call	0x2fa	; 0x2fa <menu_display>
 506:	df 91       	pop	r29
 508:	cf 91       	pop	r28
 50a:	08 95       	ret

0000050c <menu_select>:
 50c:	0f 93       	push	r16
 50e:	1f 93       	push	r17
 510:	cf 93       	push	r28
 512:	df 93       	push	r29
 514:	8c 01       	movw	r16, r24
 516:	fc 01       	movw	r30, r24
 518:	c0 81       	ld	r28, Z
 51a:	d1 81       	ldd	r29, Z+1	; 0x01
 51c:	89 81       	ldd	r24, Y+1	; 0x01
 51e:	90 e0       	ldi	r25, 0x00	; 0
 520:	29 e1       	ldi	r18, 0x19	; 25
 522:	30 e0       	ldi	r19, 0x00	; 0
 524:	82 9f       	mul	r24, r18
 526:	a0 01       	movw	r20, r0
 528:	83 9f       	mul	r24, r19
 52a:	50 0d       	add	r21, r0
 52c:	92 9f       	mul	r25, r18
 52e:	50 0d       	add	r21, r0
 530:	11 24       	eor	r1, r1
 532:	de 01       	movw	r26, r28
 534:	a4 0f       	add	r26, r20
 536:	b5 1f       	adc	r27, r21
 538:	15 96       	adiw	r26, 0x05	; 5
 53a:	8c 91       	ld	r24, X
 53c:	15 97       	sbiw	r26, 0x05	; 5
 53e:	80 ff       	sbrs	r24, 0
 540:	08 c0       	rjmp	.+16     	; 0x552 <menu_select+0x46>
 542:	5c 96       	adiw	r26, 0x1c	; 28
 544:	6d 91       	ld	r22, X+
 546:	7c 91       	ld	r23, X
 548:	5d 97       	sbiw	r26, 0x1d	; 29
 54a:	c8 01       	movw	r24, r16
 54c:	0e 94 10 02 	call	0x420	; 0x420 <menu_enter>
 550:	0e c0       	rjmp	.+28     	; 0x56e <menu_select+0x62>
 552:	ca 01       	movw	r24, r20
 554:	08 96       	adiw	r24, 0x08	; 8
 556:	c8 0f       	add	r28, r24
 558:	d9 1f       	adc	r29, r25
 55a:	16 96       	adiw	r26, 0x06	; 6
 55c:	ed 91       	ld	r30, X+
 55e:	fc 91       	ld	r31, X
 560:	17 97       	sbiw	r26, 0x07	; 7
 562:	5c 96       	adiw	r26, 0x1c	; 28
 564:	8d 91       	ld	r24, X+
 566:	9c 91       	ld	r25, X
 568:	5d 97       	sbiw	r26, 0x1d	; 29
 56a:	be 01       	movw	r22, r28
 56c:	09 95       	icall
 56e:	c8 01       	movw	r24, r16
 570:	0e 94 7d 01 	call	0x2fa	; 0x2fa <menu_display>
 574:	df 91       	pop	r29
 576:	cf 91       	pop	r28
 578:	1f 91       	pop	r17
 57a:	0f 91       	pop	r16
 57c:	08 95       	ret

0000057e <_exit>:
 57e:	f8 94       	cli

00000580 <__stop_program>:
 580:	ff cf       	rjmp	.-2      	; 0x580 <__stop_program>
